ccopy_reg
_reconstructor
p0
(cFWCore.ParameterSet.Config
Process
p1
c__builtin__
object
p2
Ntp3
Rp4
(dp5
S'MessageLogger'
p6
g0
(cFWCore.ParameterSet.Modules
Service
p7
g2
Ntp8
Rp9
(dp10
S'_isFrozen'
p11
I00
sS'suppressInfo'
p12
g0
(cFWCore.ParameterSet.Types
vstring
p13
c__builtin__
list
p14
(lp15
tp16
Rp17
(dp18
g11
I00
sS'_ParameterTypeBase__isTracked'
p19
I00
sS'_isModified'
p20
I00
sS'_nPerLine'
p21
I1
sbsS'suppressDebug'
p22
g0
(g13
g14
(lp23
tp24
Rp25
(dp26
g11
I00
sg19
I00
sg20
I00
sg21
I1
sbsS'cout'
p27
g0
(cFWCore.ParameterSet.Types
PSet
p28
g2
Ntp29
Rp30
(dp31
g11
I00
sg19
I00
sS'placeholder'
p32
g0
(cFWCore.ParameterSet.Types
bool
p33
g2
Ntp34
Rp35
(dp36
g11
I00
sg19
I00
sS'_value'
p37
I01
sg20
I00
sbsg20
I00
sS'_Parameterizable__parameterNames'
p38
(lp39
g32
asbsS'_lineNumber'
p40
I10
sS'debugModules'
p41
g0
(g13
g14
(lp42
tp43
Rp44
(dp45
g11
I00
sg19
I00
sg20
I00
sg21
I1
sbsS'_TypedParameterizable__type'
p46
g6
sS'fwkJobReports'
p47
g0
(g13
g14
(lp48
S'FrameworkJobReport'
p49
atp50
Rp51
(dp52
g11
I00
sg19
I00
sg20
I00
sg21
I1
sbsg38
(lp53
g12
aS'debugs'
p54
ag22
ag27
aS'cerr_stats'
p55
aS'warnings'
p56
aS'default'
p57
aS'statistics'
p58
aS'cerr'
p59
ag49
aS'suppressWarning'
p60
aS'errors'
p61
aS'destinations'
p62
ag41
aS'infos'
p63
aS'categories'
p64
ag47
asg58
g0
(g13
g14
(lp65
g55
atp66
Rp67
(dp68
g11
I00
sg19
I00
sg20
I00
sg21
I1
sbsS'_filename'
p69
S'/cvmfs/cms.cern.ch/slc6_amd64_gcc530/cms/cmssw/CMSSW_9_2_10/python/FWCore/ParameterSet/Modules.py'
p70
sg62
g0
(g13
g14
(lp71
g56
ag61
ag63
ag54
ag27
ag59
atp72
Rp73
(dp74
g11
I00
sg19
I00
sg20
I00
sg21
I1
sbsg54
g0
(g28
g2
Ntp75
Rp76
(dp77
g11
I00
sg19
I00
sg32
g0
(g33
g2
Ntp78
Rp79
(dp80
g11
I00
sg19
I00
sg37
I01
sg20
I00
sbsg20
I00
sg38
(lp81
g32
asbsg56
g0
(g28
g2
Ntp82
Rp83
(dp84
g11
I00
sg19
I00
sg32
g0
(g33
g2
Ntp85
Rp86
(dp87
g11
I00
sg19
I00
sg37
I01
sg20
I00
sbsg20
I00
sg38
(lp88
g32
asbsg61
g0
(g28
g2
Ntp89
Rp90
(dp91
g11
I00
sg19
I00
sg32
g0
(g33
g2
Ntp92
Rp93
(dp94
g11
I00
sg19
I00
sg37
I01
sg20
I00
sbsg20
I00
sg38
(lp95
g32
asbsg49
g0
(g28
g2
Ntp96
Rp97
(dp98
g11
I00
sg19
I00
sg20
I00
sg57
g0
(g28
g2
Ntp99
Rp100
(dp101
g11
I00
sg19
I00
sS'limit'
p102
g0
(cFWCore.ParameterSet.Types
int32
p103
g2
Ntp104
Rp105
(dp106
g11
I00
sg19
I00
sg37
I0
sg20
I00
sbsg20
I00
sg38
(lp107
g102
asbsS'FwkJob'
p108
g0
(g28
g2
Ntp109
Rp110
(dp111
g11
I00
sg19
I00
sg20
I00
sg102
g0
(g103
g2
Ntp112
Rp113
(dp114
g11
I00
sg19
I00
sg37
I10000000
sg20
I00
sbsg38
(lp115
S'optionalPSet'
p116
ag102
asg116
g0
(g33
g2
Ntp117
Rp118
(dp119
g11
I00
sg19
I00
sg37
I01
sg20
I00
sbsbsg38
(lp120
g57
ag116
ag108
asg116
g0
(g33
g2
Ntp121
Rp122
(dp123
g11
I00
sg19
I00
sg37
I01
sg20
I00
sbsbsg60
g0
(g13
g14
(lp124
tp125
Rp126
(dp127
g11
I00
sg19
I00
sg20
I00
sg21
I1
sbsg63
g0
(g28
g2
Ntp128
Rp129
(dp130
g11
I00
sg19
I00
sg20
I00
sS'Root_NoDictionary'
p131
g0
(g28
g2
Ntp132
Rp133
(dp134
g11
I00
sg19
I00
sg20
I00
sg102
g0
(g103
g2
Ntp135
Rp136
(dp137
g11
I00
sg19
I00
sg37
I0
sg20
I00
sbsg38
(lp138
g116
ag102
asg116
g0
(g33
g2
Ntp139
Rp140
(dp141
g11
I00
sg19
I00
sg37
I01
sg20
I00
sbsbsg38
(lp142
g116
ag131
ag32
asg116
g0
(g33
g2
Ntp143
Rp144
(dp145
g11
I00
sg19
I00
sg37
I01
sg20
I00
sbsg32
g0
(g33
g2
Ntp146
Rp147
(dp148
g11
I00
sg19
I00
sg37
I01
sg20
I00
sbsbsg64
g0
(g13
g14
(lp149
g108
aS'FwkReport'
p150
aS'FwkSummary'
p151
ag131
atp152
Rp153
(dp154
g11
I00
sg19
I00
sg20
I00
sg21
I1
sbsg20
I00
sg55
g0
(g28
g2
Ntp155
Rp156
(dp157
g11
I00
sg19
I00
sg20
I00
sg116
g0
(g33
g2
Ntp158
Rp159
(dp160
g11
I00
sg19
I00
sg37
I01
sg20
I00
sbsg38
(lp161
S'threshold'
p162
aS'output'
p163
ag116
asg162
g0
(cFWCore.ParameterSet.Types
string
p164
g2
Ntp165
Rp166
(dp167
g11
I00
sg19
I00
sg37
S'WARNING'
p168
sg20
I00
sbsg163
g0
(g164
g2
Ntp169
Rp170
(dp171
g11
I00
sg19
I00
sg37
g59
sg20
I00
sbsbsg57
g0
(g28
g2
Ntp172
Rp173
(dp174
g11
I00
sg19
I00
sg20
I00
sg38
(lp175
sbsS'_inProcess'
p176
I01
sg59
g0
(g28
g2
Ntp177
Rp178
(dp179
g11
I00
sg19
I00
sS'noTimeStamps'
p180
g0
(g33
g2
Ntp181
Rp182
(dp183
g11
I00
sg19
I00
sg37
I00
sg20
I00
sbsg150
g0
(g28
g2
Ntp184
Rp185
(dp186
g11
I00
sg19
I00
sg20
I01
sS'reportEvery'
p187
g0
(g103
g2
Ntp188
Rp189
(dp190
g11
I00
sg19
I00
sg37
I1000000
sg20
I00
sbsg102
g0
(g103
g2
Ntp191
Rp192
(dp193
g11
I00
sg19
I00
sg37
I10000000
sg20
I00
sbsg38
(lp194
g187
ag116
ag102
asg116
g0
(g33
g2
Ntp195
Rp196
(dp197
g11
I00
sg19
I00
sg37
I01
sg20
I00
sbsbsg20
I00
sg57
g0
(g28
g2
Ntp198
Rp199
(dp200
g11
I00
sg19
I00
sg102
g0
(g103
g2
Ntp201
Rp202
(dp203
g11
I00
sg19
I00
sg37
I10000000
sg20
I00
sbsg20
I00
sg38
(lp204
g102
asbsg131
g0
(g28
g2
Ntp205
Rp206
(dp207
g11
I00
sg19
I00
sg20
I00
sg102
g0
(g103
g2
Ntp208
Rp209
(dp210
g11
I00
sg19
I00
sg37
I0
sg20
I00
sbsg38
(lp211
g116
ag102
asg116
g0
(g33
g2
Ntp212
Rp213
(dp214
g11
I00
sg19
I00
sg37
I01
sg20
I00
sbsbsS'INFO'
p215
g0
(g28
g2
Ntp216
Rp217
(dp218
g11
I00
sg19
I00
sg102
g0
(g103
g2
Ntp219
Rp220
(dp221
g11
I00
sg19
I00
sg37
I0
sg20
I00
sbsg20
I00
sg38
(lp222
g102
asbsg116
g0
(g33
g2
Ntp223
Rp224
(dp225
g11
I00
sg19
I00
sg37
I01
sg20
I00
sbsg108
g0
(g28
g2
Ntp226
Rp227
(dp228
g11
I00
sg19
I00
sg20
I00
sg102
g0
(g103
g2
Ntp229
Rp230
(dp231
g11
I00
sg19
I00
sg37
I0
sg20
I00
sbsg38
(lp232
g116
ag102
asg116
g0
(g33
g2
Ntp233
Rp234
(dp235
g11
I00
sg19
I00
sg37
I01
sg20
I00
sbsbsg151
g0
(g28
g2
Ntp236
Rp237
(dp238
g11
I00
sg19
I00
sg20
I00
sg187
g0
(g103
g2
Ntp239
Rp240
(dp241
g11
I00
sg19
I00
sg37
I1
sg20
I00
sbsg102
g0
(g103
g2
Ntp242
Rp243
(dp244
g11
I00
sg19
I00
sg37
I10000000
sg20
I00
sbsg38
(lp245
g187
ag116
ag102
asg116
g0
(g33
g2
Ntp246
Rp247
(dp248
g11
I00
sg19
I00
sg37
I01
sg20
I00
sbsbsg38
(lp249
g215
ag180
ag150
ag57
ag131
ag162
ag108
ag151
ag116
asg162
g0
(g164
g2
Ntp250
Rp251
(dp252
g11
I00
sg19
I00
sg37
g215
sg20
I00
sbsbsbsS'_Process__sequences'
p253
(dp254
sS'_Process__services'
p255
(dp256
g6
g9
ssS'_Process__source'
p257
g0
(cFWCore.ParameterSet.Modules
Source
p258
g2
Ntp259
Rp260
(dp261
g38
(lp262
S'fileNames'
p263
asg11
I00
sg20
I00
sg40
I192
sg69
g70
sg263
g0
(g13
g14
(lp264
S'root://cmsxrootd.fnal.gov//store/data/Run2017E/ScoutingCaloMuon/RAW/v1/000/303/832/00000/DAF942AC-CAA1-E711-BD1B-02163E01A69F.root'
p265
atp266
Rp267
(dp268
g11
I00
sg19
I00
sg20
I00
sg21
I1
sbsg46
S'PoolSource'
p269
sbsS'_Process__aliases'
p270
(dp271
sS'_Process__psets'
p272
(dp273
S'maxEvents'
p274
g0
(g28
g2
Ntp275
Rp276
(dp277
g11
I00
sg19
I00
sg20
I00
sg38
(lp278
S'input'
p279
asS'_Labelable__label'
p280
g274
sg279
g0
(g103
g2
Ntp281
Rp282
(dp283
g11
I00
sg19
I00
sg37
I-1
sg20
I00
sbsbssS'p'
p284
g0
(cFWCore.ParameterSet.SequenceTypes
Path
p285
g2
Ntp286
Rp287
(dp288
g11
I00
sS'_seq'
p289
g0
(cFWCore.ParameterSet.SequenceTypes
_SequenceCollection
p290
g2
Ntp291
Rp292
(dp293
S'_collection'
p294
(lp295
g0
(cFWCore.ParameterSet.Modules
EDAnalyzer
p296
g2
Ntp297
Rp298
(dp299
g38
(lp300
S'vertex_collection'
p301
aS'mu_min'
p302
aS'MET_pt'
p303
aS'MET_phi'
p304
aS'rho'
p305
aS'output_file_name'
p306
aS'muon_collection'
p307
aS'jet_collection'
p308
asg11
I00
sg20
I01
sg40
I12
sg301
g0
(cFWCore.ParameterSet.Types
InputTag
p309
g2
Ntp310
Rp311
(dp312
g11
I00
sg19
I01
sg20
I00
sS'_InputTag__moduleLabel'
p313
S'hltScoutingMuonPackerCalo'
p314
sS'_InputTag__processName'
p315
S''
p316
sS'_InputTag__productInstance'
p317
S'displacedVtx'
p318
sbsg302
g0
(g103
g2
Ntp319
Rp320
(dp321
g11
I00
sg19
I01
sg37
I4
sg20
I01
sbsg303
g0
(g309
g2
Ntp322
Rp323
(dp324
g11
I00
sg19
I01
sg20
I00
sg313
S'hltScoutingCaloPacker'
p325
sg315
g316
sg317
S'caloMetPt'
p326
sbsg304
g0
(g309
g2
Ntp327
Rp328
(dp329
g11
I00
sg19
I01
sg20
I00
sg313
S'hltScoutingCaloPacker'
p330
sg315
g316
sg317
S'caloMetPhi'
p331
sbsg305
g0
(g309
g2
Ntp332
Rp333
(dp334
g11
I00
sg19
I01
sg20
I00
sg313
S'hltScoutingCaloPacker'
p335
sg315
g316
sg317
S'rho'
p336
sbsg69
S'/cms/scoutingmuon/duncan/muon_stuff/CMSSW_9_2_10/python/MuonAnalysis/Scouting/scoutingntuplizer_cfi.py'
p337
sg280
S'scoutingntuplizer'
p338
sg306
g0
(g164
g2
Ntp339
Rp340
(dp341
g11
I00
sg19
I01
sg37
S'scouting_ntuple.root'
p342
sg20
I00
sbsg307
g0
(g309
g2
Ntp343
Rp344
(dp345
g11
I00
sg19
I01
sg20
I00
sg313
S'hltScoutingMuonPackerCalo'
p346
sg315
g316
sg317
g316
sbsg308
g0
(g309
g2
Ntp347
Rp348
(dp349
g11
I00
sg19
I01
sg20
I00
sg313
S'hltScoutingCaloPacker'
p350
sg315
g316
sg317
g316
sbsg46
S'ScoutingNtuplizer'
p351
sbasbsg280
g284
sg20
I00
sS'_tasks'
p352
g0
(cFWCore.ParameterSet.OrderedSet
OrderedSet
p353
g2
Ntp354
Rp355
(dp356
S'map'
p357
(dp358
sS'end'
p359
(lp360
Nag360
ag360
asbsbsS'_Process__essources'
p361
(dp362
sg269
g260
sg338
g298
sg274
g276
sS'source'
p363
g260
sS'_Process__vpsets'
p364
(dp365
sS'_Process__name'
p366
g351
sS'_Process__subProcesses'
p367
(lp368
sS'_cloneToObjectDict'
p369
(dp370
I139771319469712
g276
sI139771319471184
g298
sI139771319471056
g287
ssS'_Process__esprefers'
p371
(dp372
sS'_Process__schedule'
p373
NsS'_Process__outputmodules'
p374
(dp375
sS'_Process__analyzers'
p376
(dp377
g338
g298
ssS'_Process__InExtendCall'
p378
I00
sS'_Process__modifiers'
p379
(tsS'_Process__producers'
p380
(dp381
sS'_Process__filters'
p382
(dp383
sS'_Process__looper'
p384
NsS'_Process__endpaths'
p385
g0
(cFWCore.ParameterSet.DictTypes
SortedKeysDict
p386
c__builtin__
dict
p387
(dp388
tp389
Rp390
(dp391
S'list'
p392
(lp393
sbsS'_Process__esproducers'
p394
(dp395
sS'_Process__tasks'
p396
(dp397
sS'_Process__paths'
p398
g0
(g386
g387
(dp399
g284
g287
stp400
Rp401
(dp402
g392
(lp403
g284
asbsS'_Process__partialschedules'
p404
(dp405
sS'_Process__isStrict'
p406
I00
sb.